target datalayout = "e-m:e-p270:32:32-p271:32:32-p272:64:64-i64:64-i128:128-f80:128-n8:16:32:64-S128"
target triple = "x86_64-pc-linux-gnu"

; Function Attrs: inlinehint nounwind uwtable
define internal i32 @Abc_MaxInt(i32 noundef %0, i32 noundef %1) #2 {
  %3 = alloca i32, align 4
  %4 = alloca i32, align 4
  store i32 %0, ptr %3, align 4, !tbaa !8
  store i32 %1, ptr %4, align 4, !tbaa !8
  %5 = load i32, ptr %3, align 4, !tbaa !8
  %6 = load i32, ptr %4, align 4, !tbaa !8
  %7 = icmp sgt i32 %5, %6
  br i1 %7, label %8, label %10

8:                                                ; preds = %2
  %9 = load i32, ptr %3, align 4, !tbaa !8
  br label %12

10:                                               ; preds = %2
  %11 = load i32, ptr %4, align 4, !tbaa !8
  br label %12

12:                                               ; preds = %10, %8
  %13 = phi i32 [ %9, %8 ], [ %11, %10 ]
  ret i32 %13
}

; Function Attrs: nounwind uwtable
define i32 @Dau_DsdFindVarNum(ptr noundef %0) #0 {
  %2 = alloca ptr, align 8
  %3 = alloca i32, align 4
  store ptr %0, ptr %2, align 8, !tbaa !3
  call void @llvm.lifetime.start.p0(i64 4, ptr %3) #9
  store i32 0, ptr %3, align 4, !tbaa !8
  %4 = load ptr, ptr %2, align 8, !tbaa !3
  %5 = getelementptr inbounds i8, ptr %4, i32 -1
  store ptr %5, ptr %2, align 8, !tbaa !3
  br label %6

6:                                                ; preds = %28, %1
  %7 = load ptr, ptr %2, align 8, !tbaa !3
  %8 = getelementptr inbounds nuw i8, ptr %7, i32 1
  store ptr %8, ptr %2, align 8, !tbaa !3
  %9 = load i8, ptr %8, align 1, !tbaa !10
  %10 = icmp ne i8 %9, 0
  br i1 %10, label %11, label %29

11:                                               ; preds = %6
  %12 = load ptr, ptr %2, align 8, !tbaa !3
  %13 = load i8, ptr %12, align 1, !tbaa !10
  %14 = sext i8 %13 to i32
  %15 = icmp sge i32 %14, 97
  br i1 %15, label %16, label %28

16:                                               ; preds = %11
  %17 = load ptr, ptr %2, align 8, !tbaa !3
  %18 = load i8, ptr %17, align 1, !tbaa !10
  %19 = sext i8 %18 to i32
  %20 = icmp sle i32 %19, 122
  br i1 %20, label %21, label %28

21:                                               ; preds = %16
  %22 = load i32, ptr %3, align 4, !tbaa !8
  %23 = load ptr, ptr %2, align 8, !tbaa !3
  %24 = load i8, ptr %23, align 1, !tbaa !10
  %25 = sext i8 %24 to i32
  %26 = sub nsw i32 %25, 97
  %27 = call i32 @Abc_MaxInt(i32 noundef %22, i32 noundef %26)
  store i32 %27, ptr %3, align 4, !tbaa !8
  br label %28

28:                                               ; preds = %21, %16, %11
  br label %6, !llvm.loop !13

29:                                               ; preds = %6
  %30 = load i32, ptr %3, align 4, !tbaa !8
  %31 = add nsw i32 %30, 1
  call void @llvm.lifetime.end.p0(i64 4, ptr %3) #9
  ret i32 %31
}