; Function Attrs: nofree norecurse nosync nounwind memory(argmem: read) uwtable
define range(i32 1, 257) i32 @Dau_DsdFindVarNum(ptr noundef readonly captures(none) %0) local_unnamed_addr #2 {
  %2 = load i8, ptr %0, align 1, !tbaa !3
  %.not9 = icmp eq i8 %2, 0
  br i1 %.not9, label %._crit_edge, label %.lr.ph

.lr.ph:                                           ; preds = %1, %.lr.ph
  %3 = phi i8 [ %9, %.lr.ph ], [ %2, %1 ]
  %4 = phi ptr [ %8, %.lr.ph ], [ %0, %1 ]
  %.010 = phi i32 [ %.1, %.lr.ph ], [ 0, %1 ]
  %5 = add i8 %3, -97
  %or.cond = icmp ult i8 %5, 26
  %6 = zext nneg i8 %5 to i32
  %7 = tail call i32 @llvm.smax.i32(i32 %.010, i32 %6)
  %.1 = select i1 %or.cond, i32 %7, i32 %.010
  %8 = getelementptr inbounds nuw i8, ptr %4, i64 1
  %9 = load i8, ptr %8, align 1, !tbaa !3
  %.not = icmp eq i8 %9, 0
  br i1 %.not, label %._crit_edge.loopexit, label %.lr.ph, !llvm.loop !10

._crit_edge.loopexit:                             ; preds = %.lr.ph
  %10 = add nuw nsw i32 %.1, 1
  br label %._crit_edge

._crit_edge:                                      ; preds = %._crit_edge.loopexit, %1
  %.0.lcssa = phi i32 [ 1, %1 ], [ %10, %._crit_edge.loopexit ]
  ret i32 %.0.lcssa
}